target datalayout = "e-m:e-p270:32:32-p271:32:32-p272:64:64-i64:64-i128:128-f80:128-n8:16:32:64-S128"
target triple = "x86_64-pc-linux-gnu"

%class.CodeBlob = type <{ ptr, ptr, ptr, i32, i32, i32, i32, i32, i32, i16, i16, i8, i8, [2 x i8] }>
%class.ttyLocker = type { i64 }
%class.GrowableArrayBase = type { i32, i32 }
%class.GrowableArrayView = type { %class.GrowableArrayBase, ptr }

@PrintStubCode = external global i8, align 1
@.str = private unnamed_addr constant [5 x i8] c"%s%s\00", align 1
@tty = external global ptr, align 8
@.str.4 = private unnamed_addr constant [80 x i8] c"- - - [BEGIN] - - - - - - - - - - - - - - - - - - - - - - - - - - - - - - - - -\00", align 1
@.str.5 = private unnamed_addr constant [53 x i8] c"Decoding %s 0x%016lx [0x%016lx, 0x%016lx] (%d bytes)\00", align 1
@.str.6 = private unnamed_addr constant [80 x i8] c"- - - [OOP MAPS]- - - - - - - - - - - - - - - - - - - - - - - - - - - - - - - -\00", align 1
@.str.7 = private unnamed_addr constant [80 x i8] c"- - - [END] - - - - - - - - - - - - - - - - - - - - - - - - - - - - - - - - - -\00", align 1
@_ZN13MemoryService16_code_heap_poolsE = external global ptr, align 8
@_ZN11JvmtiExport35_should_post_dynamic_code_generatedE = external global i8, align 1
@_ZN20AbstractDisassembler13_show_structsE = external global i8, align 1

; Function Attrs: mustprogress nounwind uwtable
define linkonce_odr hidden noundef i64 @_Z13pointer_deltaPVKvS0_m(ptr noundef %0, ptr noundef %1, i64 noundef %2) #1 comdat {
  %4 = alloca ptr, align 8
  %5 = alloca ptr, align 8
  %6 = alloca i64, align 8
  store ptr %0, ptr %4, align 8
  store ptr %1, ptr %5, align 8
  store i64 %2, ptr %6, align 8
  %7 = load ptr, ptr %4, align 8
  %8 = ptrtoint ptr %7 to i64
  %9 = load ptr, ptr %5, align 8
  %10 = ptrtoint ptr %9 to i64
  %11 = sub i64 %8, %10
  %12 = load i64, ptr %6, align 8
  %13 = udiv i64 %11, %12
  ret i64 %13
}

; Function Attrs: mustprogress nounwind uwtable
define linkonce_odr hidden noundef nonnull align 8 dereferenceable(8) ptr @_ZN17GrowableArrayViewIP10MemoryPoolE2atEi(ptr noundef nonnull align 8 dereferenceable(16) %0, i32 noundef %1) #1 comdat align 2 {
  %3 = alloca ptr, align 8
  %4 = alloca i32, align 4
  store ptr %0, ptr %3, align 8
  store i32 %1, ptr %4, align 4
  %5 = load ptr, ptr %3, align 8
  %6 = getelementptr inbounds %class.GrowableArrayView, ptr %5, i32 0, i32 1
  %7 = load ptr, ptr %6, align 8
  %8 = load i32, ptr %4, align 4
  %9 = sext i32 %8 to i64
  %10 = getelementptr inbounds ptr, ptr %7, i64 %9
  ret ptr %10
}

; Function Attrs: mustprogress nounwind uwtable
define linkonce_odr hidden noundef i32 @_ZNK17GrowableArrayBase6lengthEv(ptr noundef nonnull align 4 dereferenceable(8) %0) #1 comdat align 2 {
  %2 = alloca ptr, align 8
  store ptr %0, ptr %2, align 8
  %3 = load ptr, ptr %2, align 8
  %4 = getelementptr inbounds %class.GrowableArrayBase, ptr %3, i32 0, i32 0
  %5 = load i32, ptr %4, align 4
  ret i32 %5
}

; Function Attrs: mustprogress nounwind uwtable
define linkonce_odr hidden noundef i32 @_Z20pointer_delta_as_intIhEiPVKT_S2_(ptr noundef %0, ptr noundef %1) #1 comdat {
  %3 = alloca ptr, align 8
  %4 = alloca ptr, align 8
  %5 = alloca i64, align 8
  store ptr %0, ptr %3, align 8
  store ptr %1, ptr %4, align 8
  %6 = load ptr, ptr %3, align 8
  %7 = load ptr, ptr %4, align 8
  %8 = call noundef i64 @_Z13pointer_deltaPVKvS0_m(ptr noundef %6, ptr noundef %7, i64 noundef 1)
  store i64 %8, ptr %5, align 8
  %9 = load i64, ptr %5, align 8
  %10 = trunc i64 %9 to i32
  ret i32 %10
}

; Function Attrs: mustprogress nounwind uwtable
define linkonce_odr hidden noundef ptr @_ZNK8CodeBlob12header_beginEv(ptr noundef nonnull align 8 dereferenceable(54) %0) #1 comdat align 2 {
  %2 = alloca ptr, align 8
  store ptr %0, ptr %2, align 8
  %3 = load ptr, ptr %2, align 8
  ret ptr %3
}

; Function Attrs: mustprogress nounwind uwtable
define linkonce_odr hidden void @_ZN13MemoryService29track_code_cache_memory_usageEv() #1 comdat align 2 {
  %1 = alloca i32, align 4
  store i32 0, ptr %1, align 4
  br label %2

2:                                                ; preds = %12, %0
  %3 = load i32, ptr %1, align 4
  %4 = load ptr, ptr @_ZN13MemoryService16_code_heap_poolsE, align 8
  %5 = call noundef i32 @_ZNK17GrowableArrayBase6lengthEv(ptr noundef nonnull align 4 dereferenceable(8) %4)
  %6 = icmp slt i32 %3, %5
  br i1 %6, label %7, label %15

7:                                                ; preds = %2
  %8 = load ptr, ptr @_ZN13MemoryService16_code_heap_poolsE, align 8
  %9 = load i32, ptr %1, align 4
  %10 = call noundef nonnull align 8 dereferenceable(8) ptr @_ZN17GrowableArrayViewIP10MemoryPoolE2atEi(ptr noundef nonnull align 8 dereferenceable(16) %8, i32 noundef %9)
  %11 = load ptr, ptr %10, align 8
  call void @_ZN13MemoryService23track_memory_pool_usageEP10MemoryPool(ptr noundef %11)
  br label %12

12:                                               ; preds = %7
  %13 = load i32, ptr %1, align 4
  %14 = add nsw i32 %13, 1
  store i32 %14, ptr %1, align 4
  br label %2, !llvm.loop !6

15:                                               ; preds = %2
  ret void
}

; Function Attrs: mustprogress nounwind uwtable
define linkonce_odr hidden void @_ZN9ttyLockerD2Ev(ptr noundef nonnull align 8 dereferenceable(8) %0) unnamed_addr #1 comdat align 2 {
  %2 = alloca ptr, align 8
  store ptr %0, ptr %2, align 8
  %3 = load ptr, ptr %2, align 8
  %4 = getelementptr inbounds %class.ttyLocker, ptr %3, i32 0, i32 0
  %5 = load i64, ptr %4, align 8
  call void @_ZN9ttyLocker11release_ttyEl(i64 noundef %5)
  ret void
}

; Function Attrs: mustprogress nounwind uwtable
define linkonce_odr hidden noundef zeroext i1 @_ZN20AbstractDisassembler12show_structsEv() #1 comdat align 2 {
  %1 = load i8, ptr @_ZN20AbstractDisassembler13_show_structsE, align 1
  %2 = trunc i8 %1 to i1
  ret i1 %2
}

; Function Attrs: mustprogress nounwind uwtable
define linkonce_odr hidden noundef ptr @_ZNK8CodeBlob8oop_mapsEv(ptr noundef nonnull align 8 dereferenceable(54) %0) #1 comdat align 2 {
  %2 = alloca ptr, align 8
  store ptr %0, ptr %2, align 8
  %3 = load ptr, ptr %2, align 8
  %4 = getelementptr inbounds %class.CodeBlob, ptr %3, i32 0, i32 1
  %5 = load ptr, ptr %4, align 8
  ret ptr %5
}

; Function Attrs: mustprogress nounwind uwtable
define linkonce_odr hidden noundef i32 @_ZNK8CodeBlob9code_sizeEv(ptr noundef nonnull align 8 dereferenceable(54) %0) #1 comdat align 2 {
  %2 = alloca ptr, align 8
  store ptr %0, ptr %2, align 8
  %3 = load ptr, ptr %2, align 8
  %4 = call noundef ptr @_ZNK8CodeBlob8code_endEv(ptr noundef nonnull align 8 dereferenceable(54) %3)
  %5 = call noundef ptr @_ZNK8CodeBlob10code_beginEv(ptr noundef nonnull align 8 dereferenceable(54) %3)
  %6 = call noundef i32 @_Z20pointer_delta_as_intIhEiPVKT_S2_(ptr noundef %4, ptr noundef %5)
  ret i32 %6
}

; Function Attrs: mustprogress nounwind uwtable
define linkonce_odr hidden noundef ptr @_ZNK8CodeBlob8code_endEv(ptr noundef nonnull align 8 dereferenceable(54) %0) #1 comdat align 2 {
  %2 = alloca ptr, align 8
  store ptr %0, ptr %2, align 8
  %3 = load ptr, ptr %2, align 8
  %4 = call noundef ptr @_ZNK8CodeBlob12header_beginEv(ptr noundef nonnull align 8 dereferenceable(54) %3)
  %5 = getelementptr inbounds %class.CodeBlob, ptr %3, i32 0, i32 7
  %6 = load i32, ptr %5, align 8
  %7 = sext i32 %6 to i64
  %8 = getelementptr inbounds i8, ptr %4, i64 %7
  ret ptr %8
}

; Function Attrs: mustprogress nounwind uwtable
define linkonce_odr hidden noundef ptr @_ZNK8CodeBlob10code_beginEv(ptr noundef nonnull align 8 dereferenceable(54) %0) #1 comdat align 2 {
  %2 = alloca ptr, align 8
  store ptr %0, ptr %2, align 8
  %3 = load ptr, ptr %2, align 8
  %4 = call noundef ptr @_ZNK8CodeBlob12header_beginEv(ptr noundef nonnull align 8 dereferenceable(54) %3)
  %5 = getelementptr inbounds %class.CodeBlob, ptr %3, i32 0, i32 6
  %6 = load i32, ptr %5, align 4
  %7 = sext i32 %6 to i64
  %8 = getelementptr inbounds i8, ptr %4, i64 %7
  ret ptr %8
}

; Function Attrs: mustprogress nounwind uwtable
define linkonce_odr hidden noundef i64 @_Z3p2iPVKv(ptr noundef %0) #1 comdat {
  %2 = alloca ptr, align 8
  store ptr %0, ptr %2, align 8
  %3 = load ptr, ptr %2, align 8
  %4 = ptrtoint ptr %3 to i64
  ret i64 %4
}

; Function Attrs: mustprogress nounwind uwtable
define linkonce_odr hidden void @_ZN9ttyLockerC2Ev(ptr noundef nonnull align 8 dereferenceable(8) %0) unnamed_addr #1 comdat align 2 {
  %2 = alloca ptr, align 8
  store ptr %0, ptr %2, align 8
  %3 = load ptr, ptr %2, align 8
  %4 = call noundef i64 @_ZN9ttyLocker8hold_ttyEv()
  %5 = getelementptr inbounds %class.ttyLocker, ptr %3, i32 0, i32 0
  store i64 %4, ptr %5, align 8
  ret void
}

; Function Attrs: mustprogress nounwind uwtable
define linkonce_odr hidden noundef zeroext i1 @_ZN11JvmtiExport34should_post_dynamic_code_generatedEv() #1 comdat align 2 {
  %1 = load i8, ptr @_ZN11JvmtiExport35_should_post_dynamic_code_generatedE, align 1
  %2 = trunc i8 %1 to i1
  ret i1 %2
}

; Function Attrs: mustprogress nounwind uwtable
define hidden void @_ZN11RuntimeBlob14trace_new_stubEPS_PKcS2_(ptr noundef %0, ptr noundef %1, ptr noundef %2) #1 align 2 {
  %4 = alloca ptr, align 8
  %5 = alloca ptr, align 8
  %6 = alloca ptr, align 8
  %7 = alloca [256 x i8], align 16
  %8 = alloca %class.ttyLocker, align 8
  %9 = alloca ptr, align 8
  store ptr %0, ptr %4, align 8
  store ptr %1, ptr %5, align 8
  store ptr %2, ptr %6, align 8
  %10 = load ptr, ptr %4, align 8
  %11 = icmp ne ptr %10, null
  br i1 %11, label %12, label %83

12:                                               ; preds = %3
  %13 = load i8, ptr @PrintStubCode, align 1
  %14 = trunc i8 %13 to i1
  br i1 %14, label %19, label %15

15:                                               ; preds = %12
  %16 = call noundef zeroext i1 @_ZN5Forte10is_enabledEv()
  br i1 %16, label %19, label %17

17:                                               ; preds = %15
  %18 = call noundef zeroext i1 @_ZN11JvmtiExport34should_post_dynamic_code_generatedEv()
  br i1 %18, label %19, label %83

19:                                               ; preds = %17, %15, %12
  %20 = getelementptr inbounds [256 x i8], ptr %7, i64 0, i64 0
  %21 = load ptr, ptr %5, align 8
  %22 = load ptr, ptr %6, align 8
  %23 = call i32 (ptr, i64, ptr, ...) @jio_snprintf(ptr noundef %20, i64 noundef 256, ptr noundef @.str, ptr noundef %21, ptr noundef %22)
  %24 = load i8, ptr @PrintStubCode, align 1
  %25 = trunc i8 %24 to i1
  br i1 %25, label %26, label %57

26:                                               ; preds = %19
  call void @_ZN9ttyLockerC2Ev(ptr noundef nonnull align 8 dereferenceable(8) %8)
  %27 = load ptr, ptr @tty, align 8
  call void (ptr, ptr, ...) @_ZN12outputStream8print_crEPKcz(ptr noundef nonnull align 8 dereferenceable(56) %27, ptr noundef @.str.4)
  %28 = load ptr, ptr @tty, align 8
  %29 = getelementptr inbounds [256 x i8], ptr %7, i64 0, i64 0
  %30 = load ptr, ptr %4, align 8
  %31 = call noundef i64 @_Z3p2iPVKv(ptr noundef %30)
  %32 = load ptr, ptr %4, align 8
  %33 = call noundef ptr @_ZNK8CodeBlob10code_beginEv(ptr noundef nonnull align 8 dereferenceable(54) %32)
  %34 = call noundef i64 @_Z3p2iPVKv(ptr noundef %33)
  %35 = load ptr, ptr %4, align 8
  %36 = call noundef ptr @_ZNK8CodeBlob8code_endEv(ptr noundef nonnull align 8 dereferenceable(54) %35)
  %37 = call noundef i64 @_Z3p2iPVKv(ptr noundef %36)
  %38 = load ptr, ptr %4, align 8
  %39 = call noundef i32 @_ZNK8CodeBlob9code_sizeEv(ptr noundef nonnull align 8 dereferenceable(54) %38)
  call void (ptr, ptr, ...) @_ZN12outputStream8print_crEPKcz(ptr noundef nonnull align 8 dereferenceable(56) %28, ptr noundef @.str.5, ptr noundef %29, i64 noundef %31, i64 noundef %34, i64 noundef %37, i32 noundef %39)
  %40 = load ptr, ptr %4, align 8
  %41 = call noundef ptr @_ZNK8CodeBlob10code_beginEv(ptr noundef nonnull align 8 dereferenceable(54) %40)
  %42 = load ptr, ptr %4, align 8
  %43 = call noundef ptr @_ZNK8CodeBlob8code_endEv(ptr noundef nonnull align 8 dereferenceable(54) %42)
  %44 = load ptr, ptr @tty, align 8
  call void @_ZN12Disassembler6decodeEPhS0_P12outputStream(ptr noundef %41, ptr noundef %43, ptr noundef %44)
  %45 = load ptr, ptr %4, align 8
  %46 = call noundef ptr @_ZNK8CodeBlob8oop_mapsEv(ptr noundef nonnull align 8 dereferenceable(54) %45)
  %47 = icmp ne ptr %46, null
  br i1 %47, label %48, label %54

48:                                               ; preds = %26
  %49 = call noundef zeroext i1 @_ZN20AbstractDisassembler12show_structsEv()
  br i1 %49, label %50, label %54

50:                                               ; preds = %48
  %51 = load ptr, ptr @tty, align 8
  call void (ptr, ptr, ...) @_ZN12outputStream8print_crEPKcz(ptr noundef nonnull align 8 dereferenceable(56) %51, ptr noundef @.str.6)
  %52 = load ptr, ptr %4, align 8
  %53 = call noundef ptr @_ZNK8CodeBlob8oop_mapsEv(ptr noundef nonnull align 8 dereferenceable(54) %52)
  call void @_ZNK18ImmutableOopMapSet5printEv(ptr noundef nonnull align 4 dereferenceable(8) %53)
  br label %54

54:                                               ; preds = %50, %48, %26
  %55 = load ptr, ptr @tty, align 8
  call void (ptr, ptr, ...) @_ZN12outputStream8print_crEPKcz(ptr noundef nonnull align 8 dereferenceable(56) %55, ptr noundef @.str.7)
  %56 = load ptr, ptr @tty, align 8
  call void @_ZN12outputStream2crEv(ptr noundef nonnull align 8 dereferenceable(56) %56)
  call void @_ZN9ttyLockerD2Ev(ptr noundef nonnull align 8 dereferenceable(8) %8) #7
  br label %57

57:                                               ; preds = %54, %19
  %58 = call noundef zeroext i1 @_ZN5Forte10is_enabledEv()
  br i1 %58, label %59, label %65

59:                                               ; preds = %57
  %60 = getelementptr inbounds [256 x i8], ptr %7, i64 0, i64 0
  %61 = load ptr, ptr %4, align 8
  %62 = call noundef ptr @_ZNK8CodeBlob10code_beginEv(ptr noundef nonnull align 8 dereferenceable(54) %61)
  %63 = load ptr, ptr %4, align 8
  %64 = call noundef ptr @_ZNK8CodeBlob8code_endEv(ptr noundef nonnull align 8 dereferenceable(54) %63)
  call void @_ZN5Forte13register_stubEPKcPhS2_(ptr noundef %60, ptr noundef %62, ptr noundef %64)
  br label %65

65:                                               ; preds = %59, %57
  %66 = call noundef zeroext i1 @_ZN11JvmtiExport34should_post_dynamic_code_generatedEv()
  br i1 %66, label %67, label %82

67:                                               ; preds = %65
  %68 = load ptr, ptr %6, align 8
  store ptr %68, ptr %9, align 8
  %69 = load ptr, ptr %6, align 8
  %70 = getelementptr inbounds i8, ptr %69, i64 0
  %71 = load i8, ptr %70, align 1
  %72 = sext i8 %71 to i32
  %73 = icmp eq i32 %72, 0
  br i1 %73, label %74, label %76

74:                                               ; preds = %67
  %75 = load ptr, ptr %5, align 8
  store ptr %75, ptr %9, align 8
  br label %76

76:                                               ; preds = %74, %67
  %77 = load ptr, ptr %9, align 8
  %78 = load ptr, ptr %4, align 8
  %79 = call noundef ptr @_ZNK8CodeBlob10code_beginEv(ptr noundef nonnull align 8 dereferenceable(54) %78)
  %80 = load ptr, ptr %4, align 8
  %81 = call noundef ptr @_ZNK8CodeBlob8code_endEv(ptr noundef nonnull align 8 dereferenceable(54) %80)
  call void @_ZN11JvmtiExport27post_dynamic_code_generatedEPKcPKvS3_(ptr noundef %77, ptr noundef %79, ptr noundef %81)
  br label %82

82:                                               ; preds = %76, %65
  br label %83

83:                                               ; preds = %82, %17, %3
  call void @_ZN13MemoryService29track_code_cache_memory_usageEv()
  ret void
}